; Function Attrs: mustprogress uwtable
define noundef i32 @_ZNK8QuantLib35Gaussian1dNonstandardSwaptionEngine14underlyingTypeEv(ptr nocapture noundef nonnull readonly align 8 dereferenceable(860) %this) unnamed_addr #9 align 2 {
entry:
  %swap = getelementptr inbounds i8, ptr %this, i64 680
  %0 = load ptr, ptr %swap, align 8, !tbaa !84
  %cmp.not.i = icmp eq ptr %0, null
  br i1 %cmp.not.i, label %cond.false.i, label %_ZNK5boost10shared_ptrIN8QuantLib15NonstandardSwapEEptEv.exit, !prof !74

cond.false.i:                                     ; preds = %entry
  tail call void @_ZN5boost16assertion_failedEPKcS1_S1_l(ptr noundef nonnull @.str.18, ptr noundef nonnull @__PRETTY_FUNCTION__._ZNK5boost10shared_ptrIN8QuantLib15NonstandardSwapEEptEv, ptr noundef nonnull @.str.19, i64 noundef 784)
  %.pre.i = load ptr, ptr %swap, align 8, !tbaa !84
  br label %_ZNK5boost10shared_ptrIN8QuantLib15NonstandardSwapEEptEv.exit

_ZNK5boost10shared_ptrIN8QuantLib15NonstandardSwapEEptEv.exit: ; preds = %entry, %cond.false.i
  %1 = phi ptr [ %0, %entry ], [ %.pre.i, %cond.false.i ]
  %type_.i = getelementptr inbounds nuw i8, ptr %1, i64 256
  %2 = load i32, ptr %type_.i, align 8, !tbaa !93
  ret i32 %2
}